target datalayout = "e-m:e-p270:32:32-p271:32:32-p272:64:64-i64:64-i128:128-f80:128-n8:16:32:64-S128"
target triple = "x86_64-pc-linux-gnu"

%struct.expert_field = type { i32, i32 }

@ei_gtpv2_ie_data_not_dissected = internal global %struct.expert_field zeroinitializer, align 4
@hf_gtpv2_spare_bits = internal global i32 0, align 4
@hf_gtpv2_mon_event_ext_inf_lrtp = internal global i32 0, align 4
@hf_gtpv2_mon_event_ext_inf_srie = internal global i32 0, align 4
@hf_gtpv2_mon_event_ext_inf_scef_reference_id = internal global i32 0, align 4
@hf_gtpv2_mon_event_ext_inf_scef_id_length = internal global i32 0, align 4
@hf_gtpv2_mon_event_ext_inf_scef_id = internal global i32 0, align 4
@hf_gtpv2_mon_event_ext_inf_remain_min_period_loc_report_type = internal global i32 0, align 4
@hf_gtpv2_mon_event_ext_inf_scef_reference_id_ext = internal global i32 0, align 4

; Function Attrs: null_pointer_is_valid sspstrong uwtable
define internal void @dissect_gtpv2_ie_mon_event_ext_inf(ptr noundef %0, ptr noundef %1, ptr noundef %2, ptr noundef %3, i16 noundef zeroext %4, i8 noundef zeroext %5, i8 noundef zeroext %6, ptr noundef %7) #1 {
  %9 = alloca ptr, align 8
  %10 = alloca ptr, align 8
  %11 = alloca ptr, align 8
  %12 = alloca ptr, align 8
  %13 = alloca i16, align 2
  %14 = alloca i8, align 1
  %15 = alloca i8, align 1
  %16 = alloca ptr, align 8
  %17 = alloca i32, align 4
  %18 = alloca i8, align 1
  %19 = alloca i8, align 1
  %20 = alloca i32, align 4
  store ptr %0, ptr %9, align 8
  store ptr %1, ptr %10, align 8
  store ptr %2, ptr %11, align 8
  store ptr %3, ptr %12, align 8
  store i16 %4, ptr %13, align 2
  store i8 %5, ptr %14, align 1
  store i8 %6, ptr %15, align 1
  store ptr %7, ptr %16, align 8
  call void @llvm.lifetime.start.p0(i64 4, ptr %17) #11
  store i32 0, ptr %17, align 4
  call void @llvm.lifetime.start.p0(i64 1, ptr %18) #11
  call void @llvm.lifetime.start.p0(i64 1, ptr %19) #11
  call void @llvm.lifetime.start.p0(i64 4, ptr %20) #11
  %21 = load ptr, ptr %11, align 8
  %22 = load i32, ptr @hf_gtpv2_spare_bits, align 4
  %23 = load ptr, ptr %9, align 8
  %24 = load i32, ptr %17, align 4
  %25 = call ptr @proto_tree_add_bits_item(ptr noundef %21, i32 noundef %22, ptr noundef %23, i32 noundef %24, i32 noundef 6, i32 noundef 0)
  %26 = load ptr, ptr %11, align 8
  %27 = load i32, ptr @hf_gtpv2_mon_event_ext_inf_srie, align 4
  %28 = load ptr, ptr %9, align 8
  %29 = load i32, ptr %17, align 4
  %30 = call ptr @proto_tree_add_item_ret_boolean(ptr noundef %26, i32 noundef %27, ptr noundef %28, i32 noundef %29, i32 noundef 1, i32 noundef 0, ptr noundef %19)
  %31 = load ptr, ptr %11, align 8
  %32 = load i32, ptr @hf_gtpv2_mon_event_ext_inf_lrtp, align 4
  %33 = load ptr, ptr %9, align 8
  %34 = load i32, ptr %17, align 4
  %35 = call ptr @proto_tree_add_item_ret_boolean(ptr noundef %31, i32 noundef %32, ptr noundef %33, i32 noundef %34, i32 noundef 1, i32 noundef 0, ptr noundef %18)
  %36 = load i32, ptr %17, align 4
  %37 = add i32 %36, 1
  store i32 %37, ptr %17, align 4
  %38 = load ptr, ptr %11, align 8
  %39 = load i32, ptr @hf_gtpv2_mon_event_ext_inf_scef_reference_id, align 4
  %40 = load ptr, ptr %9, align 8
  %41 = load i32, ptr %17, align 4
  %42 = call ptr @proto_tree_add_item(ptr noundef %38, i32 noundef %39, ptr noundef %40, i32 noundef %41, i32 noundef 4, i32 noundef 0)
  %43 = load i32, ptr %17, align 4
  %44 = add i32 %43, 4
  store i32 %44, ptr %17, align 4
  %45 = load ptr, ptr %11, align 8
  %46 = load i32, ptr @hf_gtpv2_mon_event_ext_inf_scef_id_length, align 4
  %47 = load ptr, ptr %9, align 8
  %48 = load i32, ptr %17, align 4
  %49 = call ptr @proto_tree_add_item_ret_uint(ptr noundef %45, i32 noundef %46, ptr noundef %47, i32 noundef %48, i32 noundef 1, i32 noundef 0, ptr noundef %20)
  %50 = load i32, ptr %17, align 4
  %51 = add i32 %50, 1
  store i32 %51, ptr %17, align 4
  %52 = load ptr, ptr %11, align 8
  %53 = load i32, ptr @hf_gtpv2_mon_event_ext_inf_scef_id, align 4
  %54 = load ptr, ptr %9, align 8
  %55 = load i32, ptr %17, align 4
  %56 = load i32, ptr %20, align 4
  %57 = call ptr @proto_tree_add_item(ptr noundef %52, i32 noundef %53, ptr noundef %54, i32 noundef %55, i32 noundef %56, i32 noundef 2)
  %58 = load i32, ptr %17, align 4
  %59 = load i32, ptr %20, align 4
  %60 = add i32 %58, %59
  store i32 %60, ptr %17, align 4
  %61 = load i8, ptr %18, align 1, !range !6, !noundef !7
  %62 = trunc i8 %61 to i1
  br i1 %62, label %63, label %71

63:                                               ; preds = %8
  %64 = load ptr, ptr %11, align 8
  %65 = load i32, ptr @hf_gtpv2_mon_event_ext_inf_remain_min_period_loc_report_type, align 4
  %66 = load ptr, ptr %9, align 8
  %67 = load i32, ptr %17, align 4
  %68 = call ptr @proto_tree_add_item(ptr noundef %64, i32 noundef %65, ptr noundef %66, i32 noundef %67, i32 noundef 4, i32 noundef 0)
  %69 = load i32, ptr %17, align 4
  %70 = add i32 %69, 4
  store i32 %70, ptr %17, align 4
  br label %71

71:                                               ; preds = %63, %8
  %72 = load i8, ptr %19, align 1, !range !6, !noundef !7
  %73 = trunc i8 %72 to i1
  br i1 %73, label %74, label %82

74:                                               ; preds = %71
  %75 = load ptr, ptr %11, align 8
  %76 = load i32, ptr @hf_gtpv2_mon_event_ext_inf_scef_reference_id_ext, align 4
  %77 = load ptr, ptr %9, align 8
  %78 = load i32, ptr %17, align 4
  %79 = call ptr @proto_tree_add_item(ptr noundef %75, i32 noundef %76, ptr noundef %77, i32 noundef %78, i32 noundef 8, i32 noundef 0)
  %80 = load i32, ptr %17, align 4
  %81 = add i32 %80, 8
  store i32 %81, ptr %17, align 4
  br label %82

82:                                               ; preds = %74, %71
  %83 = load i32, ptr %17, align 4
  %84 = load i16, ptr %13, align 2
  %85 = zext i16 %84 to i32
  %86 = icmp slt i32 %83, %85
  br i1 %86, label %87, label %97

87:                                               ; preds = %82
  %88 = load ptr, ptr %11, align 8
  %89 = load ptr, ptr %10, align 8
  %90 = load ptr, ptr %9, align 8
  %91 = load i32, ptr %17, align 4
  %92 = load i16, ptr %13, align 2
  %93 = zext i16 %92 to i32
  %94 = load i32, ptr %17, align 4
  %95 = sub i32 %93, %94
  %96 = call ptr @proto_tree_add_expert(ptr noundef %88, ptr noundef %89, ptr noundef @ei_gtpv2_ie_data_not_dissected, ptr noundef %90, i32 noundef %91, i32 noundef %95)
  br label %97

97:                                               ; preds = %87, %82
  call void @llvm.lifetime.end.p0(i64 4, ptr %20) #11
  call void @llvm.lifetime.end.p0(i64 1, ptr %19) #11
  call void @llvm.lifetime.end.p0(i64 1, ptr %18) #11
  call void @llvm.lifetime.end.p0(i64 4, ptr %17) #11
  ret void
}