; Function Attrs: null_pointer_is_valid sspstrong uwtable
define internal void @dissect_gtpv2_ie_mon_event_ext_inf(ptr noundef %0, ptr noundef %1, ptr noundef %2, ptr readnone captures(none) %3, i16 noundef zeroext %4, i8 zeroext %5, i8 zeroext %6, ptr readnone captures(none) %7) #1 {
  %9 = alloca i8, align 1
  %10 = alloca i8, align 1
  %11 = alloca i32, align 4
  call void @llvm.lifetime.start.p0(i64 1, ptr nonnull %9) #12
  call void @llvm.lifetime.start.p0(i64 1, ptr nonnull %10) #12
  call void @llvm.lifetime.start.p0(i64 4, ptr nonnull %11) #12
  %12 = load i32, ptr @hf_gtpv2_spare_bits, align 4
  %13 = tail call ptr @proto_tree_add_bits_item(ptr noundef %2, i32 noundef %12, ptr noundef %0, i32 noundef 0, i32 noundef 6, i32 noundef 0)
  %14 = load i32, ptr @hf_gtpv2_mon_event_ext_inf_srie, align 4
  %15 = call ptr @proto_tree_add_item_ret_boolean(ptr noundef %2, i32 noundef %14, ptr noundef %0, i32 noundef 0, i32 noundef 1, i32 noundef 0, ptr noundef nonnull %10)
  %16 = load i32, ptr @hf_gtpv2_mon_event_ext_inf_lrtp, align 4
  %17 = call ptr @proto_tree_add_item_ret_boolean(ptr noundef %2, i32 noundef %16, ptr noundef %0, i32 noundef 0, i32 noundef 1, i32 noundef 0, ptr noundef nonnull %9)
  %18 = load i32, ptr @hf_gtpv2_mon_event_ext_inf_scef_reference_id, align 4
  %19 = call ptr @proto_tree_add_item(ptr noundef %2, i32 noundef %18, ptr noundef %0, i32 noundef 1, i32 noundef 4, i32 noundef 0)
  %20 = load i32, ptr @hf_gtpv2_mon_event_ext_inf_scef_id_length, align 4
  %21 = call ptr @proto_tree_add_item_ret_uint(ptr noundef %2, i32 noundef %20, ptr noundef %0, i32 noundef 5, i32 noundef 1, i32 noundef 0, ptr noundef nonnull %11)
  %22 = load i32, ptr @hf_gtpv2_mon_event_ext_inf_scef_id, align 4
  %23 = load i32, ptr %11, align 4
  %24 = call ptr @proto_tree_add_item(ptr noundef %2, i32 noundef %22, ptr noundef %0, i32 noundef 6, i32 noundef %23, i32 noundef 2)
  %25 = load i32, ptr %11, align 4
  %26 = add i32 %25, 6
  %27 = load i8, ptr %9, align 1, !range !13, !noundef !14
  %28 = trunc nuw i8 %27 to i1
  br i1 %28, label %29, label %33

29:                                               ; preds = %8
  %30 = load i32, ptr @hf_gtpv2_mon_event_ext_inf_remain_min_period_loc_report_type, align 4
  %31 = call ptr @proto_tree_add_item(ptr noundef %2, i32 noundef %30, ptr noundef %0, i32 noundef %26, i32 noundef 4, i32 noundef 0)
  %32 = add i32 %25, 10
  br label %33

33:                                               ; preds = %29, %8
  %.0 = phi i32 [ %32, %29 ], [ %26, %8 ]
  %34 = load i8, ptr %10, align 1, !range !13, !noundef !14
  %35 = trunc nuw i8 %34 to i1
  br i1 %35, label %36, label %40

36:                                               ; preds = %33
  %37 = load i32, ptr @hf_gtpv2_mon_event_ext_inf_scef_reference_id_ext, align 4
  %38 = call ptr @proto_tree_add_item(ptr noundef %2, i32 noundef %37, ptr noundef %0, i32 noundef %.0, i32 noundef 8, i32 noundef 0)
  %39 = add i32 %.0, 8
  br label %40

40:                                               ; preds = %36, %33
  %.1 = phi i32 [ %39, %36 ], [ %.0, %33 ]
  %41 = zext i16 %4 to i32
  %42 = icmp slt i32 %.1, %41
  br i1 %42, label %43, label %46

43:                                               ; preds = %40
  %44 = sub i32 %41, %.1
  %45 = call ptr @proto_tree_add_expert(ptr noundef %2, ptr noundef %1, ptr noundef nonnull @ei_gtpv2_ie_data_not_dissected, ptr noundef %0, i32 noundef %.1, i32 noundef %44)
  br label %46

46:                                               ; preds = %43, %40
  call void @llvm.lifetime.end.p0(i64 4, ptr nonnull %11) #12
  call void @llvm.lifetime.end.p0(i64 1, ptr nonnull %10) #12
  call void @llvm.lifetime.end.p0(i64 1, ptr nonnull %9) #12
  ret void
}